target datalayout = "e-m:e-p270:32:32-p271:32:32-p272:64:64-i64:64-i128:128-f80:128-n8:16:32:64-S128"
target triple = "x86_64-pc-linux-gnu"

; Function Attrs: mustprogress nounwind uwtable
define void @_ZN6LibRaw21crxConvertPlaneLineDfEPvi(ptr noundef nonnull align 8 dereferenceable(767680) %0, ptr noundef %1, i32 noundef %2) #6 align 2 {
  %4 = alloca ptr, align 8
  %5 = alloca ptr, align 8
  %6 = alloca i32, align 4
  store ptr %0, ptr %4, align 8, !tbaa !185
  store ptr %1, ptr %5, align 8, !tbaa !162
  store i32 %2, ptr %6, align 4, !tbaa !20
  %7 = load ptr, ptr %5, align 8, !tbaa !162
  %8 = load i32, ptr %6, align 4, !tbaa !20
  call void @_Z19crxConvertPlaneLineP8CrxImageiiiPii(ptr noundef %7, i32 noundef %8, i32 noundef 0, i32 noundef 0, ptr noundef null, i32 noundef 0)
  ret void
}

; Function Attrs: mustprogress nounwind uwtable
define void @_ZN6LibRaw21crxLoadFinalizeLoopE3EPvi(ptr noundef nonnull align 8 dereferenceable(767680) %0, ptr noundef %1, i32 noundef %2) unnamed_addr #6 align 2 {
  %4 = alloca ptr, align 8
  %5 = alloca ptr, align 8
  %6 = alloca i32, align 4
  %7 = alloca i32, align 4
  store ptr %0, ptr %4, align 8, !tbaa !185
  store ptr %1, ptr %5, align 8, !tbaa !162
  store i32 %2, ptr %6, align 4, !tbaa !20
  %8 = load ptr, ptr %4, align 8
  call void @llvm.lifetime.start.p0(i64 4, ptr %7) #19
  store i32 0, ptr %7, align 4, !tbaa !20
  br label %9

9:                                                ; preds = %17, %3
  %10 = load i32, ptr %7, align 4, !tbaa !20
  %11 = load i32, ptr %6, align 4, !tbaa !20
  %12 = icmp slt i32 %10, %11
  br i1 %12, label %14, label %13

13:                                               ; preds = %9
  call void @llvm.lifetime.end.p0(i64 4, ptr %7) #19
  br label %20

14:                                               ; preds = %9
  %15 = load ptr, ptr %5, align 8, !tbaa !162
  %16 = load i32, ptr %7, align 4, !tbaa !20
  call void @_ZN6LibRaw21crxConvertPlaneLineDfEPvi(ptr noundef nonnull align 8 dereferenceable(767680) %8, ptr noundef %15, i32 noundef %16)
  br label %17

17:                                               ; preds = %14
  %18 = load i32, ptr %7, align 4, !tbaa !20
  %19 = add nsw i32 %18, 1
  store i32 %19, ptr %7, align 4, !tbaa !20
  br label %9, !llvm.loop !255

20:                                               ; preds = %13
  ret void
}