; Function Attrs: mustprogress nofree norecurse nosync nounwind memory(readwrite, inaccessiblemem: none) uwtable
define void @_ZN6LibRaw21crxLoadFinalizeLoopE3EPvi(ptr noundef nonnull readnone align 8 captures(none) dereferenceable(767680) %0, ptr noundef readonly captures(none) %1, i32 noundef %2) unnamed_addr #9 align 2 {
  %4 = icmp sgt i32 %2, 0
  br i1 %4, label %.lr.ph, label %._crit_edge

._crit_edge:                                      ; preds = %.lr.ph, %3
  ret void

.lr.ph:                                           ; preds = %3, %.lr.ph
  %.05 = phi i32 [ %5, %.lr.ph ], [ 0, %3 ]
  tail call void @_Z19crxConvertPlaneLineP8CrxImageiiiPii(ptr noundef readonly %1, i32 noundef %.05, i32 noundef 0, i32 noundef 0, ptr noundef null, i32 noundef 0)
  %5 = add nuw nsw i32 %.05, 1
  %exitcond.not = icmp eq i32 %5, %2
  br i1 %exitcond.not, label %._crit_edge, label %.lr.ph, !llvm.loop !225
}